target datalayout = "e-m:e-p270:32:32-p271:32:32-p272:64:64-i64:64-i128:128-f80:128-n8:16:32:64-S128"
target triple = "x86_64-pc-linux-gnu"

; Function Attrs: nounwind uwtable
define hidden ptr @SDL_GetGamepads_REAL(ptr noundef %0) #0 {
  %2 = alloca ptr, align 8
  %3 = alloca i32, align 4
  %4 = alloca i32, align 4
  %5 = alloca ptr, align 8
  %6 = alloca i32, align 4
  store ptr %0, ptr %2, align 8
  call void @llvm.lifetime.start.p0(i64 4, ptr %3) #8
  store i32 0, ptr %3, align 4
  call void @llvm.lifetime.start.p0(i64 4, ptr %4) #8
  store i32 0, ptr %4, align 4
  call void @llvm.lifetime.start.p0(i64 8, ptr %5) #8
  %7 = call ptr @SDL_GetJoysticks_REAL(ptr noundef %3)
  store ptr %7, ptr %5, align 8
  %8 = load ptr, ptr %5, align 8
  %9 = icmp ne ptr %8, null
  br i1 %9, label %10, label %45

10:                                               ; preds = %1
  call void @llvm.lifetime.start.p0(i64 4, ptr %6) #8
  %11 = load i32, ptr %3, align 4
  %12 = sub nsw i32 %11, 1
  store i32 %12, ptr %6, align 4
  br label %13

13:                                               ; preds = %41, %10
  %14 = load i32, ptr %6, align 4
  %15 = icmp sge i32 %14, 0
  br i1 %15, label %16, label %44

16:                                               ; preds = %13
  %17 = load ptr, ptr %5, align 8
  %18 = load i32, ptr %6, align 4
  %19 = sext i32 %18 to i64
  %20 = getelementptr inbounds i32, ptr %17, i64 %19
  %21 = load i32, ptr %20, align 4
  %22 = call zeroext i1 @SDL_IsGamepad_REAL(i32 noundef %21)
  br i1 %22, label %23, label %26

23:                                               ; preds = %16
  %24 = load i32, ptr %4, align 4
  %25 = add nsw i32 %24, 1
  store i32 %25, ptr %4, align 4
  br label %40

26:                                               ; preds = %16
  %27 = load ptr, ptr %5, align 8
  %28 = load i32, ptr %6, align 4
  %29 = sext i32 %28 to i64
  %30 = getelementptr inbounds i32, ptr %27, i64 %29
  %31 = load ptr, ptr %5, align 8
  %32 = load i32, ptr %6, align 4
  %33 = add nsw i32 %32, 1
  %34 = sext i32 %33 to i64
  %35 = getelementptr inbounds i32, ptr %31, i64 %34
  %36 = load i32, ptr %4, align 4
  %37 = add nsw i32 %36, 1
  %38 = sext i32 %37 to i64
  %39 = mul i64 %38, 4
  call void @llvm.memmove.p0.p0.i64(ptr align 4 %30, ptr align 4 %35, i64 %39, i1 false)
  br label %40

40:                                               ; preds = %26, %23
  br label %41

41:                                               ; preds = %40
  %42 = load i32, ptr %6, align 4
  %43 = add nsw i32 %42, -1
  store i32 %43, ptr %6, align 4
  br label %13, !llvm.loop !34

44:                                               ; preds = %13
  call void @llvm.lifetime.end.p0(i64 4, ptr %6) #8
  br label %45

45:                                               ; preds = %44, %1
  %46 = load ptr, ptr %2, align 8
  %47 = icmp ne ptr %46, null
  br i1 %47, label %48, label %51

48:                                               ; preds = %45
  %49 = load i32, ptr %4, align 4
  %50 = load ptr, ptr %2, align 8
  store i32 %49, ptr %50, align 4
  br label %51

51:                                               ; preds = %48, %45
  %52 = load ptr, ptr %5, align 8
  call void @llvm.lifetime.end.p0(i64 8, ptr %5) #8
  call void @llvm.lifetime.end.p0(i64 4, ptr %4) #8
  call void @llvm.lifetime.end.p0(i64 4, ptr %3) #8
  ret ptr %52
}