; Function Attrs: nounwind uwtable
define hidden ptr @SDL_GetGamepads_REAL(ptr noundef writeonly captures(address_is_null) %0) local_unnamed_addr #0 {
  %2 = alloca i32, align 4
  call void @llvm.lifetime.start.p0(i64 4, ptr nonnull %2) #10
  store i32 0, ptr %2, align 4
  %3 = call ptr @SDL_GetJoysticks_REAL(ptr noundef nonnull %2) #10
  %.not = icmp eq ptr %3, null
  br i1 %.not, label %.loopexit, label %4

4:                                                ; preds = %1
  %5 = load i32, ptr %2, align 4
  %6 = icmp sgt i32 %5, 0
  br i1 %6, label %.lr.ph.preheader, label %.loopexit

.lr.ph.preheader:                                 ; preds = %4
  %7 = zext nneg i32 %5 to i64
  br label %.lr.ph

.lr.ph:                                           ; preds = %.lr.ph.preheader, %18
  %indvars.iv = phi i64 [ %7, %.lr.ph.preheader ], [ %indvars.iv.next, %18 ]
  %.119 = phi i32 [ 0, %.lr.ph.preheader ], [ %.2, %18 ]
  %indvars.iv.next = add nsw i64 %indvars.iv, -1
  %8 = getelementptr inbounds nuw i32, ptr %3, i64 %indvars.iv.next
  %9 = load i32, ptr %8, align 4
  %10 = call zeroext i1 @SDL_IsGamepad_REAL(i32 noundef %9)
  br i1 %10, label %11, label %13

11:                                               ; preds = %.lr.ph
  %12 = add nsw i32 %.119, 1
  br label %18

13:                                               ; preds = %.lr.ph
  %14 = getelementptr inbounds nuw i32, ptr %3, i64 %indvars.iv
  %15 = add nsw i32 %.119, 1
  %16 = sext i32 %15 to i64
  %17 = shl nsw i64 %16, 2
  call void @llvm.memmove.p0.p0.i64(ptr nonnull align 4 %8, ptr nonnull align 4 %14, i64 %17, i1 false)
  br label %18

18:                                               ; preds = %11, %13
  %.2 = phi i32 [ %12, %11 ], [ %.119, %13 ]
  %19 = icmp samesign ugt i64 %indvars.iv, 1
  br i1 %19, label %.lr.ph, label %.loopexit, !llvm.loop !41

.loopexit:                                        ; preds = %18, %4, %1
  %.014 = phi i32 [ 0, %1 ], [ 0, %4 ], [ %.2, %18 ]
  %.not17 = icmp eq ptr %0, null
  br i1 %.not17, label %21, label %20

20:                                               ; preds = %.loopexit
  store i32 %.014, ptr %0, align 4
  br label %21

21:                                               ; preds = %20, %.loopexit
  call void @llvm.lifetime.end.p0(i64 4, ptr nonnull %2) #10
  ret ptr %3
}